; Function Attrs: nounwind uwtable
define internal fastcc noundef ptr @nonTlsSearch(ptr noundef %0, ptr nocapture noundef readonly %1, ptr noundef %2) unnamed_addr #0 {
  %.08 = load ptr, ptr %1, align 8
  %.not9 = icmp eq ptr %.08, null
  br i1 %.not9, label %._crit_edge, label %.lr.ph

.lr.ph:                                           ; preds = %3, %6
  %.010 = phi ptr [ %.0, %6 ], [ %.08, %3 ]
  %4 = load ptr, ptr %.010, align 8
  %5 = tail call zeroext i8 @isSameObject(ptr noundef %0, ptr noundef %4, ptr noundef %2) #6
  %.not7 = icmp eq i8 %5, 0
  br i1 %.not7, label %6, label %._crit_edge

6:                                                ; preds = %.lr.ph
  %7 = getelementptr inbounds i8, ptr %.010, i64 232
  %.0 = load ptr, ptr %7, align 8
  %.not = icmp eq ptr %.0, null
  br i1 %.not, label %._crit_edge, label %.lr.ph, !llvm.loop !10

._crit_edge:                                      ; preds = %6, %.lr.ph, %3
  %.0.lcssa = phi ptr [ null, %3 ], [ %.010, %.lr.ph ], [ null, %6 ]
  ret ptr %.0.lcssa
}